target datalayout = "e-m:e-p270:32:32-p271:32:32-p272:64:64-i64:64-i128:128-f80:128-n8:16:32:64-S128"
target triple = "x86_64-pc-linux-gnu"

%"class.cvc5::internal::NodeTemplate.0" = type { ptr }
%"struct.cvc5::internal::BitVectorExtract" = type { i32, i32 }

; Function Attrs: inlinehint mustprogress nounwind uwtable
define linkonce_odr hidden void @_ZNK4cvc58internal12NodeTemplateILb1EE21assertTNodeNotExpiredEv(ptr noundef nonnull align 8 dereferenceable(8) %0) #6 comdat align 2 {
  %2 = alloca ptr, align 8
  store ptr %0, ptr %2, align 8, !tbaa !30
  ret void
}

; Function Attrs: inlinehint mustprogress uwtable
define linkonce_odr hidden noundef nonnull align 4 dereferenceable(8) ptr @_ZNK4cvc58internal12NodeTemplateILb1EE8getConstINS0_16BitVectorExtractEEERKT_v(ptr noundef nonnull align 8 dereferenceable(8) %0) #7 comdat align 2 {
  %2 = alloca ptr, align 8
  store ptr %0, ptr %2, align 8, !tbaa !30
  %3 = load ptr, ptr %2, align 8
  call void @_ZNK4cvc58internal12NodeTemplateILb1EE21assertTNodeNotExpiredEv(ptr noundef nonnull align 8 dereferenceable(8) %3)
  %4 = getelementptr inbounds nuw %"class.cvc5::internal::NodeTemplate.0", ptr %3, i32 0, i32 0
  %5 = load ptr, ptr %4, align 8, !tbaa !32
  %6 = call noundef nonnull align 4 dereferenceable(8) ptr @_ZNK4cvc58internal4expr9NodeValue8getConstINS0_16BitVectorExtractEEERKT_v(ptr noundef nonnull align 8 dereferenceable(24) %5)
  ret ptr %6
}

; Function Attrs: mustprogress uwtable
define hidden noundef i32 @_ZN4cvc58internal6theory2bv5utils14getExtractHighENS0_12NodeTemplateILb0EEE(ptr noundef %0) #4 personality ptr @__gxx_personality_v0 {
  %2 = alloca ptr, align 8
  %3 = alloca %"class.cvc5::internal::NodeTemplate.0", align 8
  %4 = alloca ptr, align 8
  %5 = alloca i32, align 4
  store ptr %0, ptr %2, align 8, !tbaa !3
  call void @llvm.lifetime.start.p0(i64 8, ptr %3) #3
  call void @_ZNK4cvc58internal12NodeTemplateILb0EE11getOperatorEv(ptr dead_on_unwind writable sret(%"class.cvc5::internal::NodeTemplate.0") align 8 %3, ptr noundef nonnull align 8 dereferenceable(8) %0)
  %6 = invoke noundef nonnull align 4 dereferenceable(8) ptr @_ZNK4cvc58internal12NodeTemplateILb1EE8getConstINS0_16BitVectorExtractEEERKT_v(ptr noundef nonnull align 8 dereferenceable(8) %3)
          to label %7 unwind label %10

7:                                                ; preds = %1
  %8 = getelementptr inbounds nuw %"struct.cvc5::internal::BitVectorExtract", ptr %6, i32 0, i32 0
  %9 = load i32, ptr %8, align 4, !tbaa !25
  call void @_ZN4cvc58internal12NodeTemplateILb1EED2Ev(ptr noundef nonnull align 8 dereferenceable(8) %3) #3
  call void @llvm.lifetime.end.p0(i64 8, ptr %3) #3
  ret i32 %9

10:                                               ; preds = %1
  %11 = landingpad { ptr, i32 }
          cleanup
  %12 = extractvalue { ptr, i32 } %11, 0
  store ptr %12, ptr %4, align 8
  %13 = extractvalue { ptr, i32 } %11, 1
  store i32 %13, ptr %5, align 4
  call void @_ZN4cvc58internal12NodeTemplateILb1EED2Ev(ptr noundef nonnull align 8 dereferenceable(8) %3) #3
  call void @llvm.lifetime.end.p0(i64 8, ptr %3) #3
  br label %14

14:                                               ; preds = %10
  %15 = load ptr, ptr %4, align 8
  %16 = load i32, ptr %5, align 4
  %17 = insertvalue { ptr, i32 } poison, ptr %15, 0
  %18 = insertvalue { ptr, i32 } %17, i32 %16, 1
  resume { ptr, i32 } %18
}